Certificate:
    Data:
        Version: 3 (0x2)
        Serial Number: 4096 (0x1000)
    Signature Algorithm: ecdsa-with-SHA384
        Issuer: C=FR, ST=Gironde, L=Bordeaux, O=Epsi, OU=I4, CN=Epsi Root CA/emailAddress=peter.xu@epsi.fr
        Validity
            Not Before: May  1 18:50:19 2019 GMT
            Not After : Mar  9 18:50:19 2029 GMT
        Subject: C=FR, ST=Gironde, O=Epsi, OU=I4, CN=Epsi Intermediate CA/emailAddress=peter.xu@epsi.fr
        Subject Public Key Info:
            Public Key Algorithm: id-ecPublicKey
                Public-Key: (384 bit)
                pub:
                    04:45:14:67:ac:62:d9:66:94:d4:f5:aa:1a:57:ec:
                    16:45:c3:f6:21:79:79:c4:1e:e0:2d:92:89:ef:96:
                    2a:a4:38:d3:ca:b3:e3:33:5b:c3:b7:e2:bd:30:85:
                    00:75:5e:50:e6:dd:00:10:2a:c5:20:0d:80:eb:8f:
                    ed:ca:86:e3:07:a3:ef:54:d2:f1:40:11:e9:5f:cb:
                    26:a7:d3:ef:53:1f:59:8a:4e:f6:c6:8a:da:b9:45:
                    dd:59:e3:38:90:f7:b6
                ASN1 OID: secp384r1
                NIST CURVE: P-384
        X509v3 extensions:
            X509v3 Subject Key Identifier: 
                3E:95:69:5D:17:D1:2B:55:A2:7F:27:3B:C5:BC:C0:8F:A2:5D:6B:91
            X509v3 Authority Key Identifier: 
                keyid:EE:6B:39:FD:18:99:F7:61:3C:FB:F0:4B:88:BE:2E:4B:45:52:F3:DC

            X509v3 Basic Constraints: critical
                CA:TRUE, pathlen:0
            X509v3 Key Usage: critical
                Digital Signature, Certificate Sign, CRL Sign
            X509v3 CRL Distribution Points: 

                Full Name:
                  URI:http://crl.grilledcheese.us/whomovedmycheese.crl

            Authority Information Access: 
                CA Issuers - URI:http://ocsp.grilledcheese.us/cheddarcheeseroot.crt
                OCSP - URI:http://ocsp.grilledcheese.us/

    Signature Algorithm: ecdsa-with-SHA384
         30:66:02:31:00:9b:40:7a:b8:79:dc:1a:c7:28:28:28:b6:79:
         a7:5e:4c:87:cf:38:25:2f:cb:9d:53:b5:56:dd:fb:af:e5:41:
         7e:55:84:46:3c:e5:cd:71:90:97:96:82:9e:c9:82:1b:8d:02:
         31:00:aa:5a:13:78:94:e2:c8:51:29:33:ca:5d:ac:a1:06:e7:
         d2:4d:87:2b:9c:d6:66:f7:ff:a0:e5:3c:c7:52:8a:e7:2a:61:
         84:33:c9:1f:6a:d5:3a:8f:c7:cd:52:2a:47:c4
-----BEGIN CERTIFICATE-----
MIIDWDCCAt2gAwIBAgICEAAwCgYIKoZIzj0EAwMwgYYxCzAJBgNVBAYTAkZSMRAw
DgYDVQQIDAdHaXJvbmRlMREwDwYDVQQHDAhCb3JkZWF1eDENMAsGA1UECgwERXBz
aTELMAkGA1UECwwCSTQxFTATBgNVBAMMDEVwc2kgUm9vdCBDQTEfMB0GCSqGSIb3
DQEJARYQcGV0ZXIueHVAZXBzaS5mcjAeFw0xOTA1MDExODUwMTlaFw0yOTAzMDkx
ODUwMTlaMHsxCzAJBgNVBAYTAkZSMRAwDgYDVQQIDAdHaXJvbmRlMQ0wCwYDVQQK
DARFcHNpMQswCQYDVQQLDAJJNDEdMBsGA1UEAwwURXBzaSBJbnRlcm1lZGlhdGUg
Q0ExHzAdBgkqhkiG9w0BCQEWEHBldGVyLnh1QGVwc2kuZnIwdjAQBgcqhkjOPQIB
BgUrgQQAIgNiAARFFGesYtlmlNT1qhpX7BZFw/YheXnEHuAtkonvliqkONPKs+Mz
W8O34r0whQB1XlDm3QAQKsUgDYDrj+3KhuMHo+9U0vFAEelfyyan0+9TH1mKTvbG
itq5Rd1Z4ziQ97ajggEmMIIBIjAdBgNVHQ4EFgQUPpVpXRfRK1Wifyc7xbzAj6Jd
a5EwHwYDVR0jBBgwFoAU7ms5/RiZ92E8+/BLiL4uS0VS89wwEgYDVR0TAQH/BAgw
BgEB/wIBADAOBgNVHQ8BAf8EBAMCAYYwQQYDVR0fBDowODA2oDSgMoYwaHR0cDov
L2NybC5ncmlsbGVkY2hlZXNlLnVzL3dob21vdmVkbXljaGVlc2UuY3JsMHkGCCsG
AQUFBwEBBG0wazA+BggrBgEFBQcwAoYyaHR0cDovL29jc3AuZ3JpbGxlZGNoZWVz
ZS51cy9jaGVkZGFyY2hlZXNlcm9vdC5jcnQwKQYIKwYBBQUHMAGGHWh0dHA6Ly9v
Y3NwLmdyaWxsZWRjaGVlc2UudXMvMAoGCCqGSM49BAMDA2kAMGYCMQCbQHq4edwa
xygoKLZ5p15Mh884JS/LnVO1Vt37r+VBflWERjzlzXGQl5aCnsmCG40CMQCqWhN4
lOLIUSkzyl2soQbn0k2HK5zWZvf/oOU8x1KK5yphhDPJH2rVOo/HzVIqR8Q=
-----END CERTIFICATE-----
-----BEGIN CERTIFICATE-----
MIICpDCCAiugAwIBAgIJAK03156KUnDjMAoGCCqGSM49BAMDMIGGMQswCQYDVQQG
EwJGUjEQMA4GA1UECAwHR2lyb25kZTERMA8GA1UEBwwIQm9yZGVhdXgxDTALBgNV
BAoMBEVwc2kxCzAJBgNVBAsMAkk0MRUwEwYDVQQDDAxFcHNpIFJvb3QgQ0ExHzAd
BgkqhkiG9w0BCQEWEHBldGVyLnh1QGVwc2kuZnIwHhcNMTkwNTAxMTg0NTU1WhcN
MjkwNDI4MTg0NTU1WjCBhjELMAkGA1UEBhMCRlIxEDAOBgNVBAgMB0dpcm9uZGUx
ETAPBgNVBAcMCEJvcmRlYXV4MQ0wCwYDVQQKDARFcHNpMQswCQYDVQQLDAJJNDEV
MBMGA1UEAwwMRXBzaSBSb290IENBMR8wHQYJKoZIhvcNAQkBFhBwZXRlci54dUBl
cHNpLmZyMHYwEAYHKoZIzj0CAQYFK4EEACIDYgAEaVn/1lrinr2KLxNfO4+X8qxT
qnZ6v6mBo8C9ykNxGwQNZkSZDFaodXdW1yAu76GlplIc44TXpt0pbd3sQHc7AWhr
C2dwb+yb7te+8weT/8gQncTRAEfbuTVAgf07PI/No2MwYTAdBgNVHQ4EFgQU7ms5
/RiZ92E8+/BLiL4uS0VS89wwHwYDVR0jBBgwFoAU7ms5/RiZ92E8+/BLiL4uS0VS
89wwDwYDVR0TAQH/BAUwAwEB/zAOBgNVHQ8BAf8EBAMCAYYwCgYIKoZIzj0EAwMD
ZwAwZAIwYaZ4xLHJqlpNzfpMF8qC6cp88VutHGVvClJnBSt1OfuD/Md9081sIZ3o
doZm5ki3AjAZOc0JAI+F3Pe8Xhbb22efB0CjAMVsHqy5YN6pQapY3Uw+BPGaFyCF
4hx5PUeH+x8=
-----END CERTIFICATE-----
